; Function Attrs: mustprogress uwtable
define noundef ptr @Z3_fixedpoint_from_file(ptr noundef %c, ptr noundef %d, ptr noundef %s) local_unnamed_addr #3 personality ptr @__gxx_personality_v0 {
entry:
  %is = alloca %"class.std::basic_ifstream", align 8
  %0 = atomicrmw xchg ptr @g_z3_log_enabled, i8 0 seq_cst, align 1
  %1 = and i8 %0, 1
  %tobool.i.not = icmp eq i8 %1, 0
  br i1 %tobool.i.not, label %if.end, label %if.then

if.then:                                          ; preds = %entry
  invoke void @_Z27log_Z3_fixedpoint_from_fileP11_Z3_contextP14_Z3_fixedpointPKc(ptr noundef %c, ptr noundef %d, ptr noundef %s)
          to label %if.end unwind label %lpad1

lpad1:                                            ; preds = %if.end, %if.then
  %2 = landingpad { ptr, i32 }
          cleanup
          catch ptr @_ZTI12z3_exception
  br label %ehcleanup

if.end:                                           ; preds = %if.then, %entry
  invoke void @_ZNSt14basic_ifstreamIcSt11char_traitsIcEEC1EPKcSt13_Ios_Openmode(ptr noundef nonnull align 8 dereferenceable(256) %is, ptr noundef %s, i32 noundef 8)
          to label %invoke.cont4 unwind label %lpad1

invoke.cont4:                                     ; preds = %if.end
  %vtable = load ptr, ptr %is, align 8
  %vbase.offset.ptr = getelementptr i8, ptr %vtable, i64 -24
  %vbase.offset = load i64, ptr %vbase.offset.ptr, align 8
  %add.ptr = getelementptr inbounds i8, ptr %is, i64 %vbase.offset
  %call7 = invoke noundef zeroext i1 @_ZNKSt9basic_iosIcSt11char_traitsIcEEntEv(ptr noundef nonnull align 8 dereferenceable(264) %add.ptr)
          to label %invoke.cont6 unwind label %lpad5

invoke.cont6:                                     ; preds = %invoke.cont4
  br i1 %call7, label %if.then8, label %do.body18

if.then8:                                         ; preds = %invoke.cont6
  invoke void @_ZN3api7context14set_error_codeE13Z3_error_codePKc(ptr noundef nonnull align 8 dereferenceable(3048) %c, i32 noundef 4, ptr noundef null)
          to label %do.body unwind label %lpad5

do.body:                                          ; preds = %if.then8
  br i1 %tobool.i.not, label %cleanup.thread, label %if.then14

if.then14:                                        ; preds = %do.body
  invoke void @_Z4SetRPv(ptr noundef null)
          to label %if.then.i unwind label %lpad5

lpad5:                                            ; preds = %if.then24, %do.body18, %if.then14, %if.then8, %invoke.cont4
  %3 = landingpad { ptr, i32 }
          cleanup
          catch ptr @_ZTI12z3_exception
  call void @_ZNSt14basic_ifstreamIcSt11char_traitsIcEED1Ev(ptr noundef nonnull align 8 dereferenceable(256) %is) #15
  br label %ehcleanup

do.body18:                                        ; preds = %invoke.cont6
  %call21 = invoke ptr @Z3_fixedpoint_from_stream(ptr noundef %c, ptr noundef %d, ptr noundef nonnull align 8 dereferenceable(16) %is)
          to label %invoke.cont20 unwind label %lpad5

invoke.cont20:                                    ; preds = %do.body18
  br i1 %tobool.i.not, label %cleanup.thread, label %if.then24

if.then24:                                        ; preds = %invoke.cont20
  invoke void @_Z4SetRPv(ptr noundef %call21)
          to label %if.then.i unwind label %lpad5

cleanup.thread:                                   ; preds = %invoke.cont20, %do.body
  %retval.0.ph = phi ptr [ %call21, %invoke.cont20 ], [ null, %do.body ]
  call void @_ZNSt14basic_ifstreamIcSt11char_traitsIcEED1Ev(ptr noundef nonnull align 8 dereferenceable(256) %is) #15
  br label %return

if.then.i:                                        ; preds = %if.then14, %if.then24
  %retval.0 = phi ptr [ null, %if.then14 ], [ %call21, %if.then24 ]
  call void @_ZNSt14basic_ifstreamIcSt11char_traitsIcEED1Ev(ptr noundef nonnull align 8 dereferenceable(256) %is) #15
  store atomic i8 1, ptr @g_z3_log_enabled seq_cst, align 1
  br label %return

ehcleanup:                                        ; preds = %lpad5, %lpad1
  %.pn = phi { ptr, i32 } [ %3, %lpad5 ], [ %2, %lpad1 ]
  %ehselector.slot.0 = extractvalue { ptr, i32 } %.pn, 1
  br i1 %tobool.i.not, label %_ZN10z3_log_ctxD2Ev.exit13, label %if.then.i12

if.then.i12:                                      ; preds = %ehcleanup
  store atomic i8 1, ptr @g_z3_log_enabled seq_cst, align 1
  br label %_ZN10z3_log_ctxD2Ev.exit13

_ZN10z3_log_ctxD2Ev.exit13:                       ; preds = %ehcleanup, %if.then.i12
  %4 = call i32 @llvm.eh.typeid.for(ptr nonnull @_ZTI12z3_exception) #15
  %matches = icmp eq i32 %ehselector.slot.0, %4
  br i1 %matches, label %catch, label %eh.resume

catch:                                            ; preds = %_ZN10z3_log_ctxD2Ev.exit13
  %exn.slot.0 = extractvalue { ptr, i32 } %.pn, 0
  %5 = call ptr @__cxa_begin_catch(ptr %exn.slot.0) #15
  invoke void @_ZN3api7context16handle_exceptionER12z3_exception(ptr noundef nonnull align 8 dereferenceable(3048) %c, ptr noundef nonnull align 8 dereferenceable(8) %5)
          to label %invoke.cont33 unwind label %lpad30

invoke.cont33:                                    ; preds = %catch
  call void @__cxa_end_catch()
  br label %return

lpad30:                                           ; preds = %catch
  %6 = landingpad { ptr, i32 }
          cleanup
  invoke void @__cxa_end_catch()
          to label %eh.resume unwind label %terminate.lpad

return:                                           ; preds = %if.then.i, %cleanup.thread, %invoke.cont33
  %retval.1 = phi ptr [ null, %invoke.cont33 ], [ %retval.0.ph, %cleanup.thread ], [ %retval.0, %if.then.i ]
  ret ptr %retval.1

eh.resume:                                        ; preds = %lpad30, %_ZN10z3_log_ctxD2Ev.exit13
  %lpad.val39.merged = phi { ptr, i32 } [ %6, %lpad30 ], [ %.pn, %_ZN10z3_log_ctxD2Ev.exit13 ]
  resume { ptr, i32 } %lpad.val39.merged

terminate.lpad:                                   ; preds = %lpad30
  %7 = landingpad { ptr, i32 }
          catch ptr null
  %8 = extractvalue { ptr, i32 } %7, 0
  call void @__clang_call_terminate(ptr %8) #16
  unreachable
}